; ModuleID = '11/469.c'
source_filename = "11/469.c"
target datalayout = "e-m:e-p270:32:32-p271:32:32-p272:64:64-i64:64-f80:128-n8:16:32:64-S128"
target triple = "x86_64-pc-linux-gnu"

@.str = private unnamed_addr constant [9 x i8] c"%d %d %d\00", align 1
@.str.1 = private unnamed_addr constant [3 x i8] c"%d\00", align 1

; Function Attrs: noinline nounwind uwtable
define dso_local i32 @main() #0 {
  %1 = alloca i32, align 4
  %2 = alloca i32, align 4
  %3 = alloca i32, align 4
  %4 = alloca i32, align 4
  %5 = alloca i32, align 4
  %6 = alloca [12 x i32], align 16
  %7 = alloca i32, align 4
  store i32 0, i32* %1, align 4
  %8 = getelementptr inbounds [12 x i32], [12 x i32]* %6, i64 0, i64 12
  store i32 31, i32* %8, align 16
  %9 = getelementptr inbounds [12 x i32], [12 x i32]* %6, i64 0, i64 10
  store i32 31, i32* %9, align 8
  %10 = getelementptr inbounds [12 x i32], [12 x i32]* %6, i64 0, i64 8
  store i32 31, i32* %10, align 16
  %11 = getelementptr inbounds [12 x i32], [12 x i32]* %6, i64 0, i64 7
  store i32 31, i32* %11, align 4
  %12 = getelementptr inbounds [12 x i32], [12 x i32]* %6, i64 0, i64 5
  store i32 31, i32* %12, align 4
  %13 = getelementptr inbounds [12 x i32], [12 x i32]* %6, i64 0, i64 3
  store i32 31, i32* %13, align 4
  %14 = getelementptr inbounds [12 x i32], [12 x i32]* %6, i64 0, i64 1
  store i32 31, i32* %14, align 4
  %15 = getelementptr inbounds [12 x i32], [12 x i32]* %6, i64 0, i64 2
  store i32 28, i32* %15, align 8
  %16 = getelementptr inbounds [12 x i32], [12 x i32]* %6, i64 0, i64 11
  store i32 30, i32* %16, align 4
  %17 = getelementptr inbounds [12 x i32], [12 x i32]* %6, i64 0, i64 9
  store i32 30, i32* %17, align 4
  %18 = getelementptr inbounds [12 x i32], [12 x i32]* %6, i64 0, i64 6
  store i32 30, i32* %18, align 8
  %19 = getelementptr inbounds [12 x i32], [12 x i32]* %6, i64 0, i64 4
  store i32 30, i32* %19, align 16
  store i32 0, i32* %5, align 4
  %20 = call i32 (i8*, ...) @__isoc99_scanf(i8* getelementptr inbounds ([9 x i8], [9 x i8]* @.str, i64 0, i64 0), i32* %2, i32* %3, i32* %4)
  %21 = load i32, i32* %2, align 4
  %22 = srem i32 %21, 4
  %23 = icmp ne i32 %22, 0
  br i1 %23, label %32, label %24

24:                                               ; preds = %0
  %25 = load i32, i32* %2, align 4
  %26 = srem i32 %25, 100
  %27 = icmp eq i32 %26, 0
  br i1 %27, label %28, label %51

28:                                               ; preds = %24
  %29 = load i32, i32* %2, align 4
  %30 = srem i32 %29, 400
  %31 = icmp ne i32 %30, 0
  br i1 %31, label %32, label %51

32:                                               ; preds = %28, %0
  store i32 1, i32* %7, align 4
  br label %33

33:                                               ; preds = %44, %32
  %34 = load i32, i32* %7, align 4
  %35 = load i32, i32* %3, align 4
  %36 = icmp slt i32 %34, %35
  br i1 %36, label %37, label %47

37:                                               ; preds = %33
  %38 = load i32, i32* %5, align 4
  %39 = load i32, i32* %7, align 4
  %40 = sext i32 %39 to i64
  %41 = getelementptr inbounds [12 x i32], [12 x i32]* %6, i64 0, i64 %40
  %42 = load i32, i32* %41, align 4
  %43 = add nsw i32 %38, %42
  store i32 %43, i32* %5, align 4
  br label %44

44:                                               ; preds = %37
  %45 = load i32, i32* %7, align 4
  %46 = add nsw i32 %45, 1
  store i32 %46, i32* %7, align 4
  br label %33

47:                                               ; preds = %33
  %48 = load i32, i32* %5, align 4
  %49 = load i32, i32* %4, align 4
  %50 = add nsw i32 %48, %49
  store i32 %50, i32* %5, align 4
  br label %84

51:                                               ; preds = %28, %24
  %52 = load i32, i32* %2, align 4
  %53 = srem i32 %52, 4
  %54 = icmp eq i32 %53, 0
  br i1 %54, label %55, label %59

55:                                               ; preds = %51
  %56 = load i32, i32* %2, align 4
  %57 = srem i32 %56, 100
  %58 = icmp ne i32 %57, 0
  br i1 %58, label %63, label %59

59:                                               ; preds = %55, %51
  %60 = load i32, i32* %2, align 4
  %61 = srem i32 %60, 400
  %62 = icmp eq i32 %61, 0
  br i1 %62, label %63, label %83

63:                                               ; preds = %59, %55
  store i32 1, i32* %7, align 4
  br label %64

64:                                               ; preds = %76, %63
  %65 = load i32, i32* %7, align 4
  %66 = load i32, i32* %3, align 4
  %67 = icmp slt i32 %65, %66
  br i1 %67, label %68, label %79

68:                                               ; preds = %64
  %69 = getelementptr inbounds [12 x i32], [12 x i32]* %6, i64 0, i64 2
  store i32 29, i32* %69, align 8
  %70 = load i32, i32* %5, align 4
  %71 = load i32, i32* %7, align 4
  %72 = sext i32 %71 to i64
  %73 = getelementptr inbounds [12 x i32], [12 x i32]* %6, i64 0, i64 %72
  %74 = load i32, i32* %73, align 4
  %75 = add nsw i32 %70, %74
  store i32 %75, i32* %5, align 4
  br label %76

76:                                               ; preds = %68
  %77 = load i32, i32* %7, align 4
  %78 = add nsw i32 %77, 1
  store i32 %78, i32* %7, align 4
  br label %64

79:                                               ; preds = %64
  %80 = load i32, i32* %5, align 4
  %81 = load i32, i32* %4, align 4
  %82 = add nsw i32 %80, %81
  store i32 %82, i32* %5, align 4
  br label %83

83:                                               ; preds = %79, %59
  br label %84

84:                                               ; preds = %83, %47
  %85 = load i32, i32* %5, align 4
  %86 = call i32 (i8*, ...) @printf(i8* getelementptr inbounds ([3 x i8], [3 x i8]* @.str.1, i64 0, i64 0), i32 %85)
  ret i32 0
}

declare dso_local i32 @__isoc99_scanf(i8*, ...) #1

declare dso_local i32 @printf(i8*, ...) #1


!llvm.module.flags = !{!0}
!llvm.ident = !{!1}

!0 = !{i32 1, !"wchar_size", i32 4}
!1 = !{!"clang version 10.0.0-4ubuntu1 "}
